target datalayout = "e-m:e-p270:32:32-p271:32:32-p272:64:64-i64:64-i128:128-f80:128-n8:16:32:64-S128"
target triple = "x86_64-pc-linux-gnu"

%"struct.ozz::animation::offline::RawSkeleton" = type { %"class.std::vector" }
%"class.std::vector" = type { %"struct.std::_Vector_base" }
%"struct.std::_Vector_base" = type { %"struct.std::_Vector_base<ozz::animation::offline::RawSkeleton::Joint, ozz::StdAllocator<ozz::animation::offline::RawSkeleton::Joint>>::_Vector_impl" }
%"struct.std::_Vector_base<ozz::animation::offline::RawSkeleton::Joint, ozz::StdAllocator<ozz::animation::offline::RawSkeleton::Joint>>::_Vector_impl" = type { %"struct.std::_Vector_base<ozz::animation::offline::RawSkeleton::Joint, ozz::StdAllocator<ozz::animation::offline::RawSkeleton::Joint>>::_Vector_impl_data" }
%"struct.std::_Vector_base<ozz::animation::offline::RawSkeleton::Joint, ozz::StdAllocator<ozz::animation::offline::RawSkeleton::Joint>>::_Vector_impl_data" = type { ptr, ptr, ptr }
%"struct.ozz::animation::offline::(anonymous namespace)::JointCounter" = type { i32 }

; Function Attrs: inlinehint mustprogress uwtable
define internal i32 @_ZN3ozz9animation7offline15IterateJointsDFINS1_12_GLOBAL__N_112JointCounterEEET_RKNS1_11RawSkeletonES5_(ptr noundef nonnull align 8 dereferenceable(24) %0, i32 %1) #3 {
  %3 = alloca %"struct.ozz::animation::offline::(anonymous namespace)::JointCounter", align 4
  %4 = alloca %"struct.ozz::animation::offline::(anonymous namespace)::JointCounter", align 4
  %5 = alloca ptr, align 8
  %6 = getelementptr inbounds nuw %"struct.ozz::animation::offline::(anonymous namespace)::JointCounter", ptr %4, i32 0, i32 0
  store i32 %1, ptr %6, align 4
  store ptr %0, ptr %5, align 8, !tbaa !4
  %7 = load ptr, ptr %5, align 8, !tbaa !4
  %8 = getelementptr inbounds nuw %"struct.ozz::animation::offline::RawSkeleton", ptr %7, i32 0, i32 0
  call void @_ZN3ozz9animation7offline12_GLOBAL__N_123_IterHierarchyRecurseDFINS2_12JointCounterEEEvRKSt6vectorINS1_11RawSkeleton5JointENS_12StdAllocatorIS7_EEEPKS7_RT_(ptr noundef nonnull align 8 dereferenceable(24) %8, ptr noundef null, ptr noundef nonnull align 4 dereferenceable(4) %4)
  call void @llvm.memcpy.p0.p0.i64(ptr align 4 %3, ptr align 4 %4, i64 4, i1 false), !tbaa.struct !18
  %9 = getelementptr inbounds nuw %"struct.ozz::animation::offline::(anonymous namespace)::JointCounter", ptr %3, i32 0, i32 0
  %10 = load i32, ptr %9, align 4
  ret i32 %10
}

; Function Attrs: mustprogress nounwind uwtable
define internal void @_ZN3ozz9animation7offline12_GLOBAL__N_112JointCounterC2Ev(ptr noundef nonnull align 4 dereferenceable(4) %0) unnamed_addr #0 align 2 {
  %2 = alloca ptr, align 8
  store ptr %0, ptr %2, align 8, !tbaa !20
  %3 = load ptr, ptr %2, align 8
  %4 = getelementptr inbounds nuw %"struct.ozz::animation::offline::(anonymous namespace)::JointCounter", ptr %3, i32 0, i32 0
  store i32 0, ptr %4, align 4, !tbaa !15
  ret void
}

; Function Attrs: mustprogress uwtable
define dso_local noundef i32 @_ZNK3ozz9animation7offline11RawSkeleton10num_jointsEv(ptr noundef nonnull align 8 dereferenceable(24) %0) #1 align 2 {
  %2 = alloca ptr, align 8
  %3 = alloca %"struct.ozz::animation::offline::(anonymous namespace)::JointCounter", align 4
  %4 = alloca %"struct.ozz::animation::offline::(anonymous namespace)::JointCounter", align 4
  store ptr %0, ptr %2, align 8, !tbaa !4
  %5 = load ptr, ptr %2, align 8
  call void @llvm.lifetime.start.p0(i64 4, ptr %3) #8
  call void @_ZN3ozz9animation7offline12_GLOBAL__N_112JointCounterC2Ev(ptr noundef nonnull align 4 dereferenceable(4) %4)
  %6 = getelementptr inbounds nuw %"struct.ozz::animation::offline::(anonymous namespace)::JointCounter", ptr %4, i32 0, i32 0
  %7 = load i32, ptr %6, align 4
  %8 = call i32 @_ZN3ozz9animation7offline15IterateJointsDFINS1_12_GLOBAL__N_112JointCounterEEET_RKNS1_11RawSkeletonES5_(ptr noundef nonnull align 8 dereferenceable(24) %5, i32 %7)
  %9 = getelementptr inbounds nuw %"struct.ozz::animation::offline::(anonymous namespace)::JointCounter", ptr %3, i32 0, i32 0
  store i32 %8, ptr %9, align 4
  %10 = getelementptr inbounds nuw %"struct.ozz::animation::offline::(anonymous namespace)::JointCounter", ptr %3, i32 0, i32 0
  %11 = load i32, ptr %10, align 4, !tbaa !15
  call void @llvm.lifetime.end.p0(i64 4, ptr %3) #8
  ret i32 %11
}

; Function Attrs: mustprogress uwtable
define dso_local noundef zeroext i1 @_ZNK3ozz9animation7offline11RawSkeleton8ValidateEv(ptr noundef nonnull align 8 dereferenceable(24) %0) #1 align 2 {
  %2 = alloca i1, align 1
  %3 = alloca ptr, align 8
  store ptr %0, ptr %3, align 8, !tbaa !4
  %4 = load ptr, ptr %3, align 8
  %5 = call noundef i32 @_ZNK3ozz9animation7offline11RawSkeleton10num_jointsEv(ptr noundef nonnull align 8 dereferenceable(24) %4)
  %6 = icmp sgt i32 %5, 1024
  br i1 %6, label %7, label %8

7:                                                ; preds = %1
  store i1 false, ptr %2, align 1
  br label %9

8:                                                ; preds = %1
  store i1 true, ptr %2, align 1
  br label %9

9:                                                ; preds = %8, %7
  %10 = load i1, ptr %2, align 1
  ret i1 %10
}