; Function Attrs: mustprogress nofree nosync nounwind memory(readwrite, inaccessiblemem: none) uwtable
define dso_local noundef zeroext i1 @_ZNK3ozz9animation7offline11RawSkeleton8ValidateEv(ptr noundef nonnull readonly align 8 captures(none) dereferenceable(24) %0) local_unnamed_addr #2 align 2 {
  %2 = alloca %"struct.ozz::animation::offline::(anonymous namespace)::JointCounter", align 4
  call void @llvm.lifetime.start.p0(i64 4, ptr nonnull %2)
  store i32 0, ptr %2, align 4
  call fastcc void @_ZN3ozz9animation7offline12_GLOBAL__N_123_IterHierarchyRecurseDFINS2_12JointCounterEEEvRKSt6vectorINS1_11RawSkeleton5JointENS_12StdAllocatorIS7_EEEPKS7_RT_(ptr noundef nonnull readonly align 8 dereferenceable(24) %0, ptr noundef nonnull align 4 dereferenceable(4) %2)
  %.sroa.0.0.copyload.i.i = load i32, ptr %2, align 4, !tbaa !15
  call void @llvm.lifetime.end.p0(i64 4, ptr nonnull %2)
  %3 = icmp slt i32 %.sroa.0.0.copyload.i.i, 1025
  ret i1 %3
}